; Function Attrs: nounwind uwtable
define void @X509_ACERT_set0_holder_baseCertId(ptr noundef readonly captures(none) %0, ptr noundef %1) local_unnamed_addr #0 {
  %3 = load ptr, ptr %0, align 8, !tbaa !15
  %4 = getelementptr inbounds nuw i8, ptr %3, i64 24
  %5 = load ptr, ptr %4, align 8, !tbaa !30
  tail call void @OSSL_ISSUER_SERIAL_free(ptr noundef %5) #2
  %6 = load ptr, ptr %0, align 8, !tbaa !15
  %7 = getelementptr inbounds nuw i8, ptr %6, i64 24
  store ptr %1, ptr %7, align 8, !tbaa !30
  ret void
}